; Function Attrs: nofree norecurse nosync nounwind memory(argmem: write) uwtable
define void @lv_timer_set_period(ptr noundef writeonly %0, i32 noundef %1) local_unnamed_addr #2 {
  %.not = icmp eq ptr %0, null
  br i1 %.not, label %.preheader, label %3

.preheader:                                       ; preds = %2, %.preheader
  br label %.preheader

3:                                                ; preds = %2
  store i32 %1, ptr %0, align 8, !tbaa !31
  ret void
}